target datalayout = "e-m:e-p270:32:32-p271:32:32-p272:64:64-i64:64-i128:128-f80:128-n8:16:32:64-S128"
target triple = "x86_64-pc-linux-gnu"

%struct._typeobject = type { %struct.PyVarObject, ptr, i64, i64, ptr, i64, ptr, ptr, ptr, ptr, ptr, ptr, ptr, ptr, ptr, ptr, ptr, ptr, ptr, i64, ptr, ptr, ptr, ptr, i64, ptr, ptr, ptr, ptr, ptr, ptr, ptr, ptr, ptr, i64, ptr, ptr, ptr, ptr, ptr, ptr, ptr, ptr, ptr, ptr, ptr, i32, ptr, ptr, i8, i16 }
%struct.PyVarObject = type { %struct._object, i64 }
%struct._object = type { %union.anon, ptr }
%union.anon = type { i64 }
%struct._odictobject = type { %struct.PyDictObject, ptr, ptr, ptr, i64, ptr, i64, ptr, ptr }
%struct.PyDictObject = type { %struct._object, i64, i64, ptr, ptr }
%struct._odictnode = type { ptr, i64, ptr, ptr }
%struct.anon = type { i32, i32 }

@PyDict_Type = external global %struct._typeobject, align 8
@_Py_tss_tstate = external thread_local global ptr, align 8
@PyExc_KeyError = external global ptr, align 8

; Function Attrs: inlinehint nounwind uwtable
define internal i32 @PyType_HasFeature(ptr noundef %0, i64 noundef %1) #3 {
  %3 = alloca ptr, align 8
  %4 = alloca i64, align 8
  %5 = alloca i64, align 8
  store ptr %0, ptr %3, align 8, !tbaa !76
  store i64 %1, ptr %4, align 8, !tbaa !55
  call void @llvm.lifetime.start.p0(i64 8, ptr %5) #7
  %6 = load ptr, ptr %3, align 8, !tbaa !76
  %7 = getelementptr inbounds nuw %struct._typeobject, ptr %6, i32 0, i32 19
  %8 = load i64, ptr %7, align 8, !tbaa !77
  store i64 %8, ptr %5, align 8, !tbaa !55
  %9 = load i64, ptr %5, align 8, !tbaa !55
  %10 = load i64, ptr %4, align 8, !tbaa !55
  %11 = and i64 %9, %10
  %12 = icmp ne i64 %11, 0
  %13 = zext i1 %12 to i32
  call void @llvm.lifetime.end.p0(i64 8, ptr %5) #7
  ret i32 %13
}

; Function Attrs: inlinehint nounwind uwtable
define internal i64 @_PyVectorcall_NARGS(i64 noundef %0) #3 {
  %2 = alloca i64, align 8
  store i64 %0, ptr %2, align 8, !tbaa !55
  %3 = load i64, ptr %2, align 8, !tbaa !55
  %4 = and i64 %3, 9223372036854775807
  ret i64 %4
}

; Function Attrs: inlinehint nounwind uwtable
define internal ptr @_PyVectorcall_FunctionInline(ptr noundef %0) #3 {
  %2 = alloca ptr, align 8
  %3 = alloca ptr, align 8
  %4 = alloca ptr, align 8
  %5 = alloca i32, align 4
  %6 = alloca i64, align 8
  %7 = alloca ptr, align 8
  store ptr %0, ptr %3, align 8, !tbaa !42
  call void @llvm.lifetime.start.p0(i64 8, ptr %4) #7
  %8 = load ptr, ptr %3, align 8, !tbaa !42
  %9 = call ptr @_Py_TYPE(ptr noundef %8)
  store ptr %9, ptr %4, align 8, !tbaa !76
  %10 = load ptr, ptr %4, align 8, !tbaa !76
  %11 = call i32 @PyType_HasFeature(ptr noundef %10, i64 noundef 2048)
  %12 = icmp ne i32 %11, 0
  br i1 %12, label %14, label %13

13:                                               ; preds = %1
  store ptr null, ptr %2, align 8
  store i32 1, ptr %5, align 4
  br label %22

14:                                               ; preds = %1
  call void @llvm.lifetime.start.p0(i64 8, ptr %6) #7
  %15 = load ptr, ptr %4, align 8, !tbaa !76
  %16 = getelementptr inbounds nuw %struct._typeobject, ptr %15, i32 0, i32 5
  %17 = load i64, ptr %16, align 8, !tbaa !80
  store i64 %17, ptr %6, align 8, !tbaa !55
  call void @llvm.lifetime.start.p0(i64 8, ptr %7) #7
  %18 = load ptr, ptr %3, align 8, !tbaa !42
  %19 = load i64, ptr %6, align 8, !tbaa !55
  %20 = getelementptr i8, ptr %18, i64 %19
  call void @llvm.memcpy.p0.p0.i64(ptr align 8 %7, ptr align 1 %20, i64 8, i1 false)
  %21 = load ptr, ptr %7, align 8, !tbaa !44
  store ptr %21, ptr %2, align 8
  store i32 1, ptr %5, align 4
  call void @llvm.lifetime.end.p0(i64 8, ptr %7) #7
  call void @llvm.lifetime.end.p0(i64 8, ptr %6) #7
  br label %22

22:                                               ; preds = %14, %13
  call void @llvm.lifetime.end.p0(i64 8, ptr %4) #7
  %23 = load ptr, ptr %2, align 8
  ret ptr %23
}

; Function Attrs: alwaysinline nounwind uwtable
define internal i32 @_Py_IsImmortal(ptr noundef %0) #4 {
  %2 = alloca ptr, align 8
  store ptr %0, ptr %2, align 8, !tbaa !42
  %3 = load ptr, ptr %2, align 8, !tbaa !42
  %4 = getelementptr inbounds nuw %struct._object, ptr %3, i32 0, i32 0
  %5 = getelementptr inbounds nuw %struct.anon, ptr %4, i32 0, i32 0
  %6 = load i32, ptr %5, align 8, !tbaa !74
  %7 = icmp slt i32 %6, 0
  %8 = zext i1 %7 to i32
  ret i32 %8
}

; Function Attrs: inlinehint nounwind uwtable
define internal ptr @_PyObject_VectorcallTstate(ptr noundef %0, ptr noundef %1, ptr noundef %2, i64 noundef %3, ptr noundef %4) #3 {
  %6 = alloca ptr, align 8
  %7 = alloca ptr, align 8
  %8 = alloca ptr, align 8
  %9 = alloca ptr, align 8
  %10 = alloca i64, align 8
  %11 = alloca ptr, align 8
  %12 = alloca ptr, align 8
  %13 = alloca ptr, align 8
  %14 = alloca i64, align 8
  %15 = alloca i32, align 4
  store ptr %0, ptr %7, align 8, !tbaa !9
  store ptr %1, ptr %8, align 8, !tbaa !42
  store ptr %2, ptr %9, align 8, !tbaa !53
  store i64 %3, ptr %10, align 8, !tbaa !55
  store ptr %4, ptr %11, align 8, !tbaa !42
  call void @llvm.lifetime.start.p0(i64 8, ptr %12) #7
  call void @llvm.lifetime.start.p0(i64 8, ptr %13) #7
  %16 = load ptr, ptr %8, align 8, !tbaa !42
  %17 = call ptr @_PyVectorcall_FunctionInline(ptr noundef %16)
  store ptr %17, ptr %12, align 8, !tbaa !44
  %18 = load ptr, ptr %12, align 8, !tbaa !44
  %19 = icmp eq ptr %18, null
  br i1 %19, label %20, label %29

20:                                               ; preds = %5
  call void @llvm.lifetime.start.p0(i64 8, ptr %14) #7
  %21 = load i64, ptr %10, align 8, !tbaa !55
  %22 = call i64 @_PyVectorcall_NARGS(i64 noundef %21)
  store i64 %22, ptr %14, align 8, !tbaa !55
  %23 = load ptr, ptr %7, align 8, !tbaa !9
  %24 = load ptr, ptr %8, align 8, !tbaa !42
  %25 = load ptr, ptr %9, align 8, !tbaa !53
  %26 = load i64, ptr %14, align 8, !tbaa !55
  %27 = load ptr, ptr %11, align 8, !tbaa !42
  %28 = call ptr @_PyObject_MakeTpCall(ptr noundef %23, ptr noundef %24, ptr noundef %25, i64 noundef %26, ptr noundef %27)
  store ptr %28, ptr %6, align 8
  store i32 1, ptr %15, align 4
  call void @llvm.lifetime.end.p0(i64 8, ptr %14) #7
  br label %40

29:                                               ; preds = %5
  %30 = load ptr, ptr %12, align 8, !tbaa !44
  %31 = load ptr, ptr %8, align 8, !tbaa !42
  %32 = load ptr, ptr %9, align 8, !tbaa !53
  %33 = load i64, ptr %10, align 8, !tbaa !55
  %34 = load ptr, ptr %11, align 8, !tbaa !42
  %35 = call ptr %30(ptr noundef %31, ptr noundef %32, i64 noundef %33, ptr noundef %34)
  store ptr %35, ptr %13, align 8, !tbaa !42
  %36 = load ptr, ptr %7, align 8, !tbaa !9
  %37 = load ptr, ptr %8, align 8, !tbaa !42
  %38 = load ptr, ptr %13, align 8, !tbaa !42
  %39 = call ptr @_Py_CheckFunctionResult(ptr noundef %36, ptr noundef %37, ptr noundef %38, ptr noundef null)
  store ptr %39, ptr %6, align 8
  store i32 1, ptr %15, align 4
  br label %40

40:                                               ; preds = %29, %20
  call void @llvm.lifetime.end.p0(i64 8, ptr %13) #7
  call void @llvm.lifetime.end.p0(i64 8, ptr %12) #7
  %41 = load ptr, ptr %6, align 8
  ret ptr %41
}

; Function Attrs: inlinehint nounwind uwtable
define internal ptr @_PyThreadState_GET() #3 {
  %1 = call align 8 ptr @llvm.threadlocal.address.p0(ptr align 8 @_Py_tss_tstate)
  %2 = load ptr, ptr %1, align 8, !tbaa !9
  ret ptr %2
}

; Function Attrs: alwaysinline nounwind uwtable
define internal void @Py_DECREF(ptr noundef %0) #4 {
  %2 = alloca ptr, align 8
  store ptr %0, ptr %2, align 8, !tbaa !42
  %3 = load ptr, ptr %2, align 8, !tbaa !42
  %4 = call i32 @_Py_IsImmortal(ptr noundef %3)
  %5 = icmp ne i32 %4, 0
  br i1 %5, label %6, label %7

6:                                                ; preds = %1
  br label %16

7:                                                ; preds = %1
  %8 = load ptr, ptr %2, align 8, !tbaa !42
  %9 = getelementptr inbounds nuw %struct._object, ptr %8, i32 0, i32 0
  %10 = getelementptr inbounds nuw %struct.anon, ptr %9, i32 0, i32 0
  %11 = load i32, ptr %10, align 8, !tbaa !74
  %12 = add i32 %11, -1
  store i32 %12, ptr %10, align 8, !tbaa !74
  %13 = icmp eq i32 %12, 0
  br i1 %13, label %14, label %16

14:                                               ; preds = %7
  %15 = load ptr, ptr %2, align 8, !tbaa !42
  call void @_Py_Dealloc(ptr noundef %15)
  br label %16

16:                                               ; preds = %6, %14, %7
  ret void
}

; Function Attrs: inlinehint nounwind uwtable
define internal ptr @_PyObject_CallNoArgs(ptr noundef %0) #3 {
  %2 = alloca ptr, align 8
  %3 = alloca ptr, align 8
  store ptr %0, ptr %2, align 8, !tbaa !42
  call void @llvm.lifetime.start.p0(i64 8, ptr %3) #7
  %4 = call ptr @_PyThreadState_GET()
  store ptr %4, ptr %3, align 8, !tbaa !9
  %5 = load ptr, ptr %3, align 8, !tbaa !9
  %6 = load ptr, ptr %2, align 8, !tbaa !42
  %7 = call ptr @_PyObject_VectorcallTstate(ptr noundef %5, ptr noundef %6, ptr noundef null, i64 noundef 0, ptr noundef null)
  call void @llvm.lifetime.end.p0(i64 8, ptr %3) #7
  ret ptr %7
}

; Function Attrs: inlinehint nounwind uwtable
define internal ptr @_Py_TYPE(ptr noundef %0) #3 {
  %2 = alloca ptr, align 8
  store ptr %0, ptr %2, align 8, !tbaa !42
  %3 = load ptr, ptr %2, align 8, !tbaa !42
  %4 = getelementptr inbounds nuw %struct._object, ptr %3, i32 0, i32 1
  %5 = load ptr, ptr %4, align 8, !tbaa !68
  ret ptr %5
}

; Function Attrs: nounwind uwtable
define dso_local ptr @PyODict_New() #0 {
  %1 = load ptr, ptr getelementptr inbounds nuw (%struct._typeobject, ptr @PyDict_Type, i32 0, i32 37), align 8, !tbaa !57
  %2 = call ptr %1(ptr noundef @PyODict_Type, ptr noundef null, ptr noundef null)
  ret ptr %2
}

; Function Attrs: inlinehint nounwind uwtable
define internal i32 @Py_IS_TYPE(ptr noundef %0, ptr noundef %1) #3 {
  %3 = alloca ptr, align 8
  %4 = alloca ptr, align 8
  store ptr %0, ptr %3, align 8, !tbaa !42
  store ptr %1, ptr %4, align 8, !tbaa !76
  %5 = load ptr, ptr %3, align 8, !tbaa !42
  %6 = call ptr @_Py_TYPE(ptr noundef %5)
  %7 = load ptr, ptr %4, align 8, !tbaa !76
  %8 = icmp eq ptr %6, %7
  %9 = zext i1 %8 to i32
  ret i32 %9
}

; Function Attrs: nounwind uwtable
define internal ptr @odict_copy(ptr noundef %0, ptr noundef %1) #0 {
  %3 = alloca ptr, align 8
  %4 = alloca ptr, align 8
  %5 = alloca ptr, align 8
  %6 = alloca ptr, align 8
  %7 = alloca ptr, align 8
  %8 = alloca i32, align 4
  %9 = alloca ptr, align 8
  %10 = alloca ptr, align 8
  %11 = alloca i32, align 4
  %12 = alloca ptr, align 8
  store ptr %0, ptr %4, align 8, !tbaa !4
  store ptr %1, ptr %5, align 8, !tbaa !42
  call void @llvm.lifetime.start.p0(i64 8, ptr %6) #7
  call void @llvm.lifetime.start.p0(i64 8, ptr %7) #7
  %13 = load ptr, ptr %4, align 8, !tbaa !4
  %14 = call i32 @Py_IS_TYPE(ptr noundef %13, ptr noundef @PyODict_Type)
  %15 = icmp ne i32 %14, 0
  br i1 %15, label %16, label %18

16:                                               ; preds = %2
  %17 = call ptr @PyODict_New()
  store ptr %17, ptr %7, align 8, !tbaa !42
  br label %22

18:                                               ; preds = %2
  %19 = load ptr, ptr %4, align 8, !tbaa !4
  %20 = call ptr @_Py_TYPE(ptr noundef %19)
  %21 = call ptr @_PyObject_CallNoArgs(ptr noundef %20)
  store ptr %21, ptr %7, align 8, !tbaa !42
  br label %22

22:                                               ; preds = %18, %16
  %23 = load ptr, ptr %7, align 8, !tbaa !42
  %24 = icmp eq ptr %23, null
  br i1 %24, label %25, label %26

25:                                               ; preds = %22
  store ptr null, ptr %3, align 8
  store i32 1, ptr %8, align 4
  br label %114

26:                                               ; preds = %22
  %27 = load ptr, ptr %4, align 8, !tbaa !4
  %28 = call i32 @Py_IS_TYPE(ptr noundef %27, ptr noundef @PyODict_Type)
  %29 = icmp ne i32 %28, 0
  br i1 %29, label %30, label %74

30:                                               ; preds = %26
  %31 = load ptr, ptr %4, align 8, !tbaa !4
  %32 = getelementptr inbounds nuw %struct._odictobject, ptr %31, i32 0, i32 1
  %33 = load ptr, ptr %32, align 8, !tbaa !45
  store ptr %33, ptr %6, align 8, !tbaa !46
  br label %34

34:                                               ; preds = %69, %30
  %35 = load ptr, ptr %6, align 8, !tbaa !46
  %36 = icmp ne ptr %35, null
  br i1 %36, label %37, label %73

37:                                               ; preds = %34
  call void @llvm.lifetime.start.p0(i64 8, ptr %9) #7
  %38 = load ptr, ptr %6, align 8, !tbaa !46
  %39 = getelementptr inbounds nuw %struct._odictnode, ptr %38, i32 0, i32 0
  %40 = load ptr, ptr %39, align 8, !tbaa !47
  store ptr %40, ptr %9, align 8, !tbaa !42
  call void @llvm.lifetime.start.p0(i64 8, ptr %10) #7
  %41 = load ptr, ptr %4, align 8, !tbaa !4
  %42 = load ptr, ptr %6, align 8, !tbaa !46
  %43 = getelementptr inbounds nuw %struct._odictnode, ptr %42, i32 0, i32 0
  %44 = load ptr, ptr %43, align 8, !tbaa !47
  %45 = call ptr @PyDict_GetItemWithError(ptr noundef %41, ptr noundef %44)
  store ptr %45, ptr %10, align 8, !tbaa !42
  %46 = load ptr, ptr %10, align 8, !tbaa !42
  %47 = icmp eq ptr %46, null
  br i1 %47, label %48, label %55

48:                                               ; preds = %37
  %49 = call ptr @PyErr_Occurred()
  %50 = icmp ne ptr %49, null
  br i1 %50, label %54, label %51

51:                                               ; preds = %48
  %52 = load ptr, ptr @PyExc_KeyError, align 8, !tbaa !42
  %53 = load ptr, ptr %9, align 8, !tbaa !42
  call void @PyErr_SetObject(ptr noundef %52, ptr noundef %53)
  br label %54

54:                                               ; preds = %51, %48
  store i32 5, ptr %8, align 4
  br label %66

55:                                               ; preds = %37
  %56 = load ptr, ptr %7, align 8, !tbaa !42
  %57 = load ptr, ptr %9, align 8, !tbaa !42
  %58 = load ptr, ptr %10, align 8, !tbaa !42
  %59 = load ptr, ptr %6, align 8, !tbaa !46
  %60 = getelementptr inbounds nuw %struct._odictnode, ptr %59, i32 0, i32 1
  %61 = load i64, ptr %60, align 8, !tbaa !156
  %62 = call i32 @_PyODict_SetItem_KnownHash(ptr noundef %56, ptr noundef %57, ptr noundef %58, i64 noundef %61)
  %63 = icmp ne i32 %62, 0
  br i1 %63, label %64, label %65

64:                                               ; preds = %55
  store i32 5, ptr %8, align 4
  br label %66

65:                                               ; preds = %55
  store i32 0, ptr %8, align 4
  br label %66

66:                                               ; preds = %64, %54, %65
  call void @llvm.lifetime.end.p0(i64 8, ptr %10) #7
  call void @llvm.lifetime.end.p0(i64 8, ptr %9) #7
  %67 = load i32, ptr %8, align 4
  switch i32 %67, label %114 [
    i32 0, label %68
    i32 5, label %112
  ]

68:                                               ; preds = %66
  br label %69

69:                                               ; preds = %68
  %70 = load ptr, ptr %6, align 8, !tbaa !46
  %71 = getelementptr inbounds nuw %struct._odictnode, ptr %70, i32 0, i32 2
  %72 = load ptr, ptr %71, align 8, !tbaa !49
  store ptr %72, ptr %6, align 8, !tbaa !46
  br label %34, !llvm.loop !157

73:                                               ; preds = %34
  br label %110

74:                                               ; preds = %26
  %75 = load ptr, ptr %4, align 8, !tbaa !4
  %76 = getelementptr inbounds nuw %struct._odictobject, ptr %75, i32 0, i32 1
  %77 = load ptr, ptr %76, align 8, !tbaa !45
  store ptr %77, ptr %6, align 8, !tbaa !46
  br label %78

78:                                               ; preds = %105, %74
  %79 = load ptr, ptr %6, align 8, !tbaa !46
  %80 = icmp ne ptr %79, null
  br i1 %80, label %81, label %109

81:                                               ; preds = %78
  call void @llvm.lifetime.start.p0(i64 4, ptr %11) #7
  call void @llvm.lifetime.start.p0(i64 8, ptr %12) #7
  %82 = load ptr, ptr %4, align 8, !tbaa !4
  %83 = load ptr, ptr %6, align 8, !tbaa !46
  %84 = getelementptr inbounds nuw %struct._odictnode, ptr %83, i32 0, i32 0
  %85 = load ptr, ptr %84, align 8, !tbaa !47
  %86 = call ptr @PyObject_GetItem(ptr noundef %82, ptr noundef %85)
  store ptr %86, ptr %12, align 8, !tbaa !42
  %87 = load ptr, ptr %12, align 8, !tbaa !42
  %88 = icmp eq ptr %87, null
  br i1 %88, label %89, label %90

89:                                               ; preds = %81
  store i32 5, ptr %8, align 4
  br label %102

90:                                               ; preds = %81
  %91 = load ptr, ptr %7, align 8, !tbaa !42
  %92 = load ptr, ptr %6, align 8, !tbaa !46
  %93 = getelementptr inbounds nuw %struct._odictnode, ptr %92, i32 0, i32 0
  %94 = load ptr, ptr %93, align 8, !tbaa !47
  %95 = load ptr, ptr %12, align 8, !tbaa !42
  %96 = call i32 @PyObject_SetItem(ptr noundef %91, ptr noundef %94, ptr noundef %95)
  store i32 %96, ptr %11, align 4, !tbaa !43
  %97 = load ptr, ptr %12, align 8, !tbaa !42
  call void @Py_DECREF(ptr noundef %97)
  %98 = load i32, ptr %11, align 4, !tbaa !43
  %99 = icmp ne i32 %98, 0
  br i1 %99, label %100, label %101

100:                                              ; preds = %90
  store i32 5, ptr %8, align 4
  br label %102

101:                                              ; preds = %90
  store i32 0, ptr %8, align 4
  br label %102

102:                                              ; preds = %100, %89, %101
  call void @llvm.lifetime.end.p0(i64 8, ptr %12) #7
  call void @llvm.lifetime.end.p0(i64 4, ptr %11) #7
  %103 = load i32, ptr %8, align 4
  switch i32 %103, label %114 [
    i32 0, label %104
    i32 5, label %112
  ]

104:                                              ; preds = %102
  br label %105

105:                                              ; preds = %104
  %106 = load ptr, ptr %6, align 8, !tbaa !46
  %107 = getelementptr inbounds nuw %struct._odictnode, ptr %106, i32 0, i32 2
  %108 = load ptr, ptr %107, align 8, !tbaa !49
  store ptr %108, ptr %6, align 8, !tbaa !46
  br label %78, !llvm.loop !158

109:                                              ; preds = %78
  br label %110

110:                                              ; preds = %109, %73
  %111 = load ptr, ptr %7, align 8, !tbaa !42
  store ptr %111, ptr %3, align 8
  store i32 1, ptr %8, align 4
  br label %114

112:                                              ; preds = %102, %66
  %113 = load ptr, ptr %7, align 8, !tbaa !42
  call void @Py_DECREF(ptr noundef %113)
  store ptr null, ptr %3, align 8
  store i32 1, ptr %8, align 4
  br label %114

114:                                              ; preds = %112, %110, %102, %66, %25
  call void @llvm.lifetime.end.p0(i64 8, ptr %7) #7
  call void @llvm.lifetime.end.p0(i64 8, ptr %6) #7
  %115 = load ptr, ptr %3, align 8
  ret ptr %115
}