; Function Attrs: nounwind uwtable
define internal ptr @odict_copy(ptr noundef %0, ptr readnone captures(none) %1) #0 {
  %3 = getelementptr i8, ptr %0, i64 8
  %.val48 = load ptr, ptr %3, align 8, !tbaa !20
  %.not = icmp eq ptr %.val48, @PyODict_Type
  br i1 %.not, label %4, label %7

4:                                                ; preds = %2
  %5 = load ptr, ptr getelementptr inbounds nuw (i8, ptr @PyDict_Type, i64 312), align 8, !tbaa !137
  %6 = tail call ptr %5(ptr noundef nonnull @PyODict_Type, ptr noundef null, ptr noundef null) #8
  br label %_PyObject_CallNoArgs.exit

7:                                                ; preds = %2
  %8 = tail call align 8 ptr @llvm.threadlocal.address.p0(ptr align 8 @_Py_tss_tstate)
  %9 = load ptr, ptr %8, align 8, !tbaa !64
  %10 = getelementptr i8, ptr %.val48, i64 8
  %.val.i.i.i = load ptr, ptr %10, align 8, !tbaa !20
  %11 = getelementptr i8, ptr %.val.i.i.i, i64 168
  %.val6.i.i.i = load i64, ptr %11, align 8, !tbaa !54
  %12 = and i64 %.val6.i.i.i, 2048
  %.not.i.i.i = icmp eq i64 %12, 0
  br i1 %.not.i.i.i, label %_PyVectorcall_FunctionInline.exit.thread.i.i, label %_PyVectorcall_FunctionInline.exit.i.i

_PyVectorcall_FunctionInline.exit.i.i:            ; preds = %7
  %13 = getelementptr inbounds nuw i8, ptr %.val.i.i.i, i64 56
  %14 = load i64, ptr %13, align 8, !tbaa !144
  %15 = getelementptr i8, ptr %.val48, i64 %14
  %.0.copyload.i.i.i = load ptr, ptr %15, align 1
  %16 = icmp eq ptr %.0.copyload.i.i.i, null
  br i1 %16, label %_PyVectorcall_FunctionInline.exit.thread.i.i, label %18

_PyVectorcall_FunctionInline.exit.thread.i.i:     ; preds = %_PyVectorcall_FunctionInline.exit.i.i, %7
  %17 = tail call ptr @_PyObject_MakeTpCall(ptr noundef %9, ptr noundef nonnull %.val48, ptr noundef null, i64 noundef 0, ptr noundef null) #8
  br label %_PyObject_CallNoArgs.exit

18:                                               ; preds = %_PyVectorcall_FunctionInline.exit.i.i
  %19 = tail call ptr %.0.copyload.i.i.i(ptr noundef nonnull %.val48, ptr noundef null, i64 noundef 0, ptr noundef null) #8
  %20 = tail call ptr @_Py_CheckFunctionResult(ptr noundef %9, ptr noundef nonnull %.val48, ptr noundef %19, ptr noundef null) #8
  br label %_PyObject_CallNoArgs.exit

_PyObject_CallNoArgs.exit:                        ; preds = %18, %_PyVectorcall_FunctionInline.exit.thread.i.i, %4
  %.032 = phi ptr [ %6, %4 ], [ %17, %_PyVectorcall_FunctionInline.exit.thread.i.i ], [ %20, %18 ]
  %21 = icmp eq ptr %.032, null
  br i1 %21, label %Py_DECREF.exit, label %22

22:                                               ; preds = %_PyObject_CallNoArgs.exit
  %.val47 = load ptr, ptr %3, align 8, !tbaa !20
  %.not54 = icmp eq ptr %.val47, @PyODict_Type
  %23 = getelementptr inbounds nuw i8, ptr %0, i64 48
  %.03161 = load ptr, ptr %23, align 8, !tbaa !50
  %.not4062 = icmp eq ptr %.03161, null
  br i1 %.not54, label %24, label %38

24:                                               ; preds = %22
  br i1 %.not4062, label %Py_DECREF.exit, label %.lr.ph64

25:                                               ; preds = %34
  %26 = getelementptr inbounds nuw i8, ptr %.03163, i64 16
  %.031 = load ptr, ptr %26, align 8, !tbaa !50
  %.not40 = icmp eq ptr %.031, null
  br i1 %.not40, label %Py_DECREF.exit, label %.lr.ph64, !llvm.loop !148

.lr.ph64:                                         ; preds = %24, %25
  %.03163 = phi ptr [ %.031, %25 ], [ %.03161, %24 ]
  %27 = load ptr, ptr %.03163, align 8, !tbaa !44
  %28 = tail call ptr @PyDict_GetItemWithError(ptr noundef %0, ptr noundef %27) #8
  %29 = icmp eq ptr %28, null
  br i1 %29, label %30, label %34

30:                                               ; preds = %.lr.ph64
  %31 = tail call ptr @PyErr_Occurred() #8
  %.not42 = icmp eq ptr %31, null
  br i1 %.not42, label %32, label %.thread

32:                                               ; preds = %30
  %33 = load ptr, ptr @PyExc_KeyError, align 8, !tbaa !53
  tail call void @PyErr_SetObject(ptr noundef %33, ptr noundef %27) #8
  br label %.thread

34:                                               ; preds = %.lr.ph64
  %35 = getelementptr inbounds nuw i8, ptr %.03163, i64 8
  %36 = load i64, ptr %35, align 8, !tbaa !138
  %37 = tail call fastcc i32 @_PyODict_SetItem_KnownHash(ptr noundef nonnull %.032, ptr noundef %27, ptr noundef nonnull %28, i64 noundef %36)
  %.not41 = icmp eq i32 %37, 0
  br i1 %.not41, label %25, label %.thread

38:                                               ; preds = %22
  br i1 %.not4062, label %Py_DECREF.exit, label %.lr.ph

39:                                               ; preds = %Py_DECREF.exit45
  %40 = getelementptr inbounds nuw i8, ptr %.160, i64 16
  %.1 = load ptr, ptr %40, align 8, !tbaa !50
  %.not38 = icmp eq ptr %.1, null
  br i1 %.not38, label %Py_DECREF.exit, label %.lr.ph, !llvm.loop !149

.lr.ph:                                           ; preds = %38, %39
  %.160 = phi ptr [ %.1, %39 ], [ %.03161, %38 ]
  %41 = load ptr, ptr %.160, align 8, !tbaa !44
  %42 = tail call ptr @PyObject_GetItem(ptr noundef %0, ptr noundef %41) #8
  %43 = icmp eq ptr %42, null
  br i1 %43, label %.thread, label %44

44:                                               ; preds = %.lr.ph
  %45 = load ptr, ptr %.160, align 8, !tbaa !44
  %46 = tail call i32 @PyObject_SetItem(ptr noundef nonnull %.032, ptr noundef %45, ptr noundef nonnull %42) #8
  %47 = load i32, ptr %42, align 8, !tbaa !38
  %.not.i44 = icmp sgt i32 %47, -1
  br i1 %.not.i44, label %48, label %Py_DECREF.exit45

48:                                               ; preds = %44
  %49 = add nsw i32 %47, -1
  store i32 %49, ptr %42, align 8, !tbaa !38
  %50 = icmp eq i32 %49, 0
  br i1 %50, label %51, label %Py_DECREF.exit45

51:                                               ; preds = %48
  tail call void @_Py_Dealloc(ptr noundef nonnull %42) #8
  br label %Py_DECREF.exit45

Py_DECREF.exit45:                                 ; preds = %44, %48, %51
  %.not39 = icmp eq i32 %46, 0
  br i1 %.not39, label %39, label %.thread

.thread:                                          ; preds = %Py_DECREF.exit45, %.lr.ph, %34, %30, %32
  %52 = load i32, ptr %.032, align 8, !tbaa !38
  %.not.i = icmp sgt i32 %52, -1
  br i1 %.not.i, label %53, label %Py_DECREF.exit

53:                                               ; preds = %.thread
  %54 = add nsw i32 %52, -1
  store i32 %54, ptr %.032, align 8, !tbaa !38
  %55 = icmp eq i32 %54, 0
  br i1 %55, label %56, label %Py_DECREF.exit

56:                                               ; preds = %53
  tail call void @_Py_Dealloc(ptr noundef nonnull %.032) #8
  br label %Py_DECREF.exit

Py_DECREF.exit:                                   ; preds = %39, %25, %38, %24, %56, %53, %.thread, %_PyObject_CallNoArgs.exit
  %.0 = phi ptr [ null, %_PyObject_CallNoArgs.exit ], [ null, %.thread ], [ null, %53 ], [ null, %56 ], [ %.032, %24 ], [ %.032, %38 ], [ %.032, %25 ], [ %.032, %39 ]
  ret ptr %.0
}